(dp1
S'\\frac'
p2
I1
sS'\\gamma'
p3
I1
sS'\\neq'
p4
I1
sS' '
I1
sS')'
I1
sS'('
I1
sS'+'
I1
sS'-'
I1
sS','
I1
sS'.'
I1
sS'1'
I1
sS'='
I3
sS'\\label'
p5
I1
sS'C'
I1
sS'E'
I2
sS'M'
I1
sS'L'
I3
sS'N'
I1
sS'\\rm'
p6
I1
sS'_'
I8
sS'^'
I1
sS'\\sum'
p7
I2
sS'k'
I7
sS'j'
I3
sS'n'
I1
sS'p'
I2
sS'r'
I1
sS'x'
I3
s.